; Function Attrs: mustprogress nofree norecurse nosync nounwind willreturn memory(read, inaccessiblemem: none) uwtable
define internal { double, double } @_ZL10forward_2d5PJ_LPP8PJconsts(double %0, double %1, ptr noundef readonly captures(none) %2) #3 {
  %4 = getelementptr inbounds nuw i8, ptr %2, i64 88
  %5 = load ptr, ptr %4, align 8, !tbaa !50
  %6 = getelementptr inbounds nuw i8, ptr %5, i64 32
  %7 = load double, ptr %5, align 8, !tbaa !59
  %8 = load double, ptr %6, align 8, !tbaa !76
  %9 = tail call double @llvm.fmuladd.f64(double %8, double %0, double %7)
  %10 = getelementptr inbounds nuw i8, ptr %5, i64 40
  %11 = load double, ptr %10, align 8, !tbaa !77
  %12 = tail call double @llvm.fmuladd.f64(double %11, double %1, double %9)
  %13 = getelementptr inbounds nuw i8, ptr %5, i64 48
  %14 = load double, ptr %13, align 8, !tbaa !78
  %15 = tail call double @llvm.fmuladd.f64(double %14, double 0.000000e+00, double %12)
  %16 = getelementptr inbounds nuw i8, ptr %5, i64 8
  %17 = load double, ptr %16, align 8, !tbaa !60
  %18 = getelementptr inbounds nuw i8, ptr %5, i64 56
  %19 = load double, ptr %18, align 8, !tbaa !79
  %20 = tail call double @llvm.fmuladd.f64(double %19, double %0, double %17)
  %21 = getelementptr inbounds nuw i8, ptr %5, i64 64
  %22 = load double, ptr %21, align 8, !tbaa !80
  %23 = tail call double @llvm.fmuladd.f64(double %22, double %1, double %20)
  %24 = getelementptr inbounds nuw i8, ptr %5, i64 72
  %25 = load double, ptr %24, align 8, !tbaa !81
  %26 = tail call double @llvm.fmuladd.f64(double %25, double 0.000000e+00, double %23)
  %.fca.0.insert = insertvalue { double, double } poison, double %15, 0
  %.fca.1.insert = insertvalue { double, double } %.fca.0.insert, double %26, 1
  ret { double, double } %.fca.1.insert
}